; Function Attrs: mustprogress nofree nounwind willreturn memory(read, inaccessiblemem: none) uwtable
define noundef i64 @_ZN5boost10filesystem6detail15path_algorithms19find_root_path_sizeERKNS0_4pathE(ptr nocapture noundef nonnull readonly align 8 dereferenceable(32) %0) local_unnamed_addr #7 align 2 {
  %2 = load ptr, ptr %0, align 8, !tbaa !3
  %3 = getelementptr inbounds nuw i8, ptr %0, i64 8
  %4 = load i64, ptr %3, align 8, !tbaa !10
  %5 = icmp eq i64 %4, 0
  br i1 %5, label %_ZN12_GLOBAL__N_125find_root_directory_startEPKcmRm.exit, label %6

6:                                                ; preds = %1
  %7 = load i8, ptr %2, align 1, !tbaa !11
  %8 = icmp eq i8 %7, 47
  br i1 %8, label %9, label %_ZN12_GLOBAL__N_125find_root_directory_startEPKcmRm.exit

9:                                                ; preds = %6
  %.not.i = icmp eq i64 %4, 1
  br i1 %.not.i, label %_ZN12_GLOBAL__N_125find_root_directory_startEPKcmRm.exit, label %10

10:                                               ; preds = %9
  %11 = getelementptr inbounds i8, ptr %2, i64 1
  %12 = load i8, ptr %11, align 1, !tbaa !11
  %13 = icmp eq i8 %12, 47
  br i1 %13, label %14, label %_ZN12_GLOBAL__N_125find_root_directory_startEPKcmRm.exit

14:                                               ; preds = %10
  %15 = icmp eq i64 %4, 2
  br i1 %15, label %_ZN12_GLOBAL__N_125find_root_directory_startEPKcmRm.exit, label %16

16:                                               ; preds = %14
  %17 = getelementptr inbounds i8, ptr %2, i64 2
  %18 = load i8, ptr %17, align 1, !tbaa !11
  %19 = icmp eq i8 %18, 47
  br i1 %19, label %_ZN12_GLOBAL__N_125find_root_directory_startEPKcmRm.exit, label %20

20:                                               ; preds = %16
  %21 = add i64 %4, -2
  %22 = tail call noundef ptr @memchr(ptr noundef nonnull %17, i32 noundef 47, i64 noundef %21) #22
  %.not.i.i = icmp eq ptr %22, null
  %23 = ptrtoint ptr %22 to i64
  %24 = ptrtoint ptr %17 to i64
  %25 = sub i64 %23, %24
  %.0.i.i = select i1 %.not.i.i, i64 %21, i64 %25, !prof !14
  %26 = add i64 %.0.i.i, 2
  br label %_ZN12_GLOBAL__N_125find_root_directory_startEPKcmRm.exit

_ZN12_GLOBAL__N_125find_root_directory_startEPKcmRm.exit: ; preds = %14, %20, %1, %6, %9, %10, %16
  %.0 = phi i64 [ 0, %1 ], [ 0, %9 ], [ 0, %16 ], [ 0, %10 ], [ 0, %6 ], [ %26, %20 ], [ 2, %14 ]
  %.021.i = phi i64 [ 0, %1 ], [ 0, %9 ], [ 0, %16 ], [ 0, %10 ], [ %4, %6 ], [ %26, %20 ], [ 2, %14 ]
  %27 = icmp ult i64 %.021.i, %4
  %28 = add i64 %.021.i, 1
  %spec.select = select i1 %27, i64 %28, i64 %.0
  ret i64 %spec.select
}